target datalayout = "e-m:e-p270:32:32-p271:32:32-p272:64:64-i64:64-i128:128-f80:128-n8:16:32:64-S128"
target triple = "x86_64-pc-linux-gnu"

%struct.Ndr_Data_t_ = type { i32, i32, ptr, ptr }
%struct.Vec_Int_t_ = type { i32, i32, ptr }

@.str.19 = private unnamed_addr constant [36 x i8] c"Retiming network is not available.\0A\00", align 1

; Function Attrs: inlinehint nounwind uwtable
define internal void @Vec_IntFree(ptr noundef %0) #2 {
  %2 = alloca ptr, align 8
  store ptr %0, ptr %2, align 8, !tbaa !13
  %3 = load ptr, ptr %2, align 8, !tbaa !13
  %4 = getelementptr inbounds nuw %struct.Vec_Int_t_, ptr %3, i32 0, i32 2
  %5 = load ptr, ptr %4, align 8, !tbaa !39
  %6 = icmp ne ptr %5, null
  br i1 %6, label %7, label %13

7:                                                ; preds = %1
  %8 = load ptr, ptr %2, align 8, !tbaa !13
  %9 = getelementptr inbounds nuw %struct.Vec_Int_t_, ptr %8, i32 0, i32 2
  %10 = load ptr, ptr %9, align 8, !tbaa !39
  call void @free(ptr noundef %10) #11
  %11 = load ptr, ptr %2, align 8, !tbaa !13
  %12 = getelementptr inbounds nuw %struct.Vec_Int_t_, ptr %11, i32 0, i32 2
  store ptr null, ptr %12, align 8, !tbaa !39
  br label %14

13:                                               ; preds = %1
  br label %14

14:                                               ; preds = %13, %7
  %15 = load ptr, ptr %2, align 8, !tbaa !13
  %16 = icmp ne ptr %15, null
  br i1 %16, label %17, label %19

17:                                               ; preds = %14
  %18 = load ptr, ptr %2, align 8, !tbaa !13
  call void @free(ptr noundef %18) #11
  store ptr null, ptr %2, align 8, !tbaa !13
  br label %20

19:                                               ; preds = %14
  br label %20

20:                                               ; preds = %19, %17
  ret void
}

; Function Attrs: inlinehint nounwind uwtable
define internal void @Ndr_Delete(ptr noundef %0) #2 {
  %2 = alloca ptr, align 8
  %3 = alloca ptr, align 8
  %4 = alloca i32, align 4
  store ptr %0, ptr %2, align 8, !tbaa !8
  call void @llvm.lifetime.start.p0(i64 8, ptr %3) #11
  %5 = load ptr, ptr %2, align 8, !tbaa !8
  store ptr %5, ptr %3, align 8, !tbaa !18
  %6 = load ptr, ptr %3, align 8, !tbaa !18
  %7 = icmp ne ptr %6, null
  br i1 %7, label %9, label %8

8:                                                ; preds = %1
  store i32 1, ptr %4, align 4
  br label %17

9:                                                ; preds = %1
  %10 = load ptr, ptr %3, align 8, !tbaa !18
  %11 = getelementptr inbounds nuw %struct.Ndr_Data_t_, ptr %10, i32 0, i32 2
  %12 = load ptr, ptr %11, align 8, !tbaa !25
  call void @free(ptr noundef %12) #11
  %13 = load ptr, ptr %3, align 8, !tbaa !18
  %14 = getelementptr inbounds nuw %struct.Ndr_Data_t_, ptr %13, i32 0, i32 3
  %15 = load ptr, ptr %14, align 8, !tbaa !26
  call void @free(ptr noundef %15) #11
  %16 = load ptr, ptr %3, align 8, !tbaa !18
  call void @free(ptr noundef %16) #11
  store i32 0, ptr %4, align 4
  br label %17

17:                                               ; preds = %9, %8
  call void @llvm.lifetime.end.p0(i64 8, ptr %3) #11
  %18 = load i32, ptr %4, align 4
  switch i32 %18, label %20 [
    i32 0, label %19
    i32 1, label %19
  ]

19:                                               ; preds = %17, %17
  ret void

20:                                               ; preds = %17
  unreachable
}

; Function Attrs: nounwind uwtable
define void @Wln_NtkRetimeTest(ptr noundef %0, i32 noundef %1, i32 noundef %2, i32 noundef %3, i32 noundef %4) #0 {
  %6 = alloca ptr, align 8
  %7 = alloca i32, align 4
  %8 = alloca i32, align 4
  %9 = alloca i32, align 4
  %10 = alloca i32, align 4
  %11 = alloca ptr, align 8
  %12 = alloca ptr, align 8
  %13 = alloca ptr, align 8
  %14 = alloca i32, align 4
  store ptr %0, ptr %6, align 8, !tbaa !28
  store i32 %1, ptr %7, align 4, !tbaa !9
  store i32 %2, ptr %8, align 4, !tbaa !9
  store i32 %3, ptr %9, align 4, !tbaa !9
  store i32 %4, ptr %10, align 4, !tbaa !9
  call void @llvm.lifetime.start.p0(i64 8, ptr %11) #11
  call void @llvm.lifetime.start.p0(i64 8, ptr %12) #11
  %15 = load ptr, ptr %6, align 8, !tbaa !28
  %16 = call ptr @Ndr_Read(ptr noundef %15)
  store ptr %16, ptr %12, align 8, !tbaa !8
  call void @llvm.lifetime.start.p0(i64 8, ptr %13) #11
  %17 = load ptr, ptr %12, align 8, !tbaa !8
  %18 = icmp ne ptr %17, null
  br i1 %18, label %19, label %23

19:                                               ; preds = %5
  %20 = load ptr, ptr %12, align 8, !tbaa !8
  %21 = load i32, ptr %9, align 4, !tbaa !9
  %22 = call ptr @Wln_NtkFromNdr(ptr noundef %20, i32 noundef %21)
  br label %24

23:                                               ; preds = %5
  br label %24

24:                                               ; preds = %23, %19
  %25 = phi ptr [ %22, %19 ], [ null, %23 ]
  store ptr %25, ptr %13, align 8, !tbaa !3
  %26 = load ptr, ptr %12, align 8, !tbaa !8
  call void @Ndr_Delete(ptr noundef %26)
  %27 = load ptr, ptr %13, align 8, !tbaa !3
  %28 = icmp eq ptr %27, null
  br i1 %28, label %29, label %31

29:                                               ; preds = %24
  %30 = call i32 (ptr, ...) @printf(ptr noundef @.str.19)
  store i32 1, ptr %14, align 4
  br label %40

31:                                               ; preds = %24
  %32 = load ptr, ptr %13, align 8, !tbaa !3
  call void @Wln_NtkRetimeCreateDelayInfo(ptr noundef %32)
  %33 = load ptr, ptr %13, align 8, !tbaa !3
  %34 = load i32, ptr %7, align 4, !tbaa !9
  %35 = load i32, ptr %8, align 4, !tbaa !9
  %36 = load i32, ptr %10, align 4, !tbaa !9
  %37 = call ptr @Wln_NtkRetime(ptr noundef %33, i32 noundef %34, i32 noundef %35, i32 noundef %36)
  store ptr %37, ptr %11, align 8, !tbaa !13
  %38 = load ptr, ptr %11, align 8, !tbaa !13
  call void @Vec_IntFree(ptr noundef %38)
  %39 = load ptr, ptr %13, align 8, !tbaa !3
  call void @Wln_NtkFree(ptr noundef %39)
  store i32 0, ptr %14, align 4
  br label %40

40:                                               ; preds = %31, %29
  call void @llvm.lifetime.end.p0(i64 8, ptr %13) #11
  call void @llvm.lifetime.end.p0(i64 8, ptr %12) #11
  call void @llvm.lifetime.end.p0(i64 8, ptr %11) #11
  %41 = load i32, ptr %14, align 4
  switch i32 %41, label %43 [
    i32 0, label %42
    i32 1, label %42
  ]

42:                                               ; preds = %40, %40
  ret void

43:                                               ; preds = %40
  unreachable
}