; Function Attrs: nounwind uwtable
define void @Wln_NtkRetimeTest(ptr noundef %0, i32 noundef %1, i32 noundef %2, i32 noundef %3, i32 noundef %4) local_unnamed_addr #0 {
  %6 = tail call fastcc ptr @Ndr_Read(ptr noundef %0)
  %.not = icmp eq ptr %6, null
  br i1 %.not, label %.split12.thread, label %.split12

.split12:                                         ; preds = %5
  %7 = tail call ptr @Wln_NtkFromNdr(ptr noundef nonnull %6, i32 poison)
  %8 = getelementptr inbounds nuw i8, ptr %6, i64 8
  %9 = load ptr, ptr %8, align 8, !tbaa !11
  tail call void @free(ptr noundef %9) #21
  %10 = getelementptr inbounds nuw i8, ptr %6, i64 16
  %11 = load ptr, ptr %10, align 8, !tbaa !12
  tail call void @free(ptr noundef %11) #21
  tail call void @free(ptr noundef nonnull %6) #21
  %12 = icmp eq ptr %7, null
  br i1 %12, label %.split12.thread, label %13

.split12.thread:                                  ; preds = %5, %.split12
  %puts = tail call i32 @puts(ptr nonnull dereferenceable(1) @str.1)
  br label %18

13:                                               ; preds = %.split12
  tail call void @Wln_NtkRetimeCreateDelayInfo(ptr noundef nonnull %7) #21
  %14 = tail call ptr @Wln_NtkRetime(ptr noundef nonnull %7, i32 noundef %1, i32 noundef %2, i32 noundef %4) #21
  %15 = getelementptr inbounds nuw i8, ptr %14, i64 8
  %16 = load ptr, ptr %15, align 8, !tbaa !18
  %.not.i14 = icmp eq ptr %16, null
  br i1 %.not.i14, label %Vec_IntFree.exit, label %17

17:                                               ; preds = %13
  tail call void @free(ptr noundef nonnull %16) #21
  br label %Vec_IntFree.exit

Vec_IntFree.exit:                                 ; preds = %13, %17
  tail call void @free(ptr noundef nonnull %14) #21
  tail call void @Wln_NtkFree(ptr noundef nonnull %7) #21
  br label %18

18:                                               ; preds = %Vec_IntFree.exit, %.split12.thread
  ret void
}